; Function Attrs: nounwind uwtable
define dso_local i64 @pg_stat_get_backend_wait_event(ptr noundef captures(none) %0) local_unnamed_addr #0 {
  %2 = getelementptr inbounds nuw i8, ptr %0, i64 32
  %3 = load i64, ptr %2, align 8
  %4 = trunc i64 %3 to i32
  %5 = tail call ptr @pgstat_get_beentry_by_proc_number(i32 noundef %4) #9
  %6 = icmp eq ptr %5, null
  br i1 %6, label %.thread, label %7

7:                                                ; preds = %1
  %8 = tail call i32 @GetUserId() #9
  %9 = tail call zeroext i1 @has_privs_of_role(i32 noundef %8, i32 noundef 3375) #9
  br i1 %9, label %15, label %10

10:                                               ; preds = %7
  %11 = tail call i32 @GetUserId() #9
  %12 = getelementptr inbounds nuw i8, ptr %5, i64 52
  %13 = load i32, ptr %12, align 4
  %14 = tail call zeroext i1 @has_privs_of_role(i32 noundef %11, i32 noundef %13) #9
  br i1 %14, label %15, label %.thread

15:                                               ; preds = %10, %7
  %16 = getelementptr inbounds nuw i8, ptr %5, i64 4
  %17 = load i32, ptr %16, align 4
  %18 = tail call ptr @BackendPidGetProc(i32 noundef %17) #9
  %.not = icmp eq ptr %18, null
  br i1 %.not, label %.thread15, label %19

19:                                               ; preds = %15
  %20 = getelementptr inbounds nuw i8, ptr %18, i64 712
  %21 = load i32, ptr %20, align 8
  %22 = tail call ptr @pgstat_get_wait_event(i32 noundef %21) #9
  %.not11 = icmp eq ptr %22, null
  br i1 %.not11, label %.thread15, label %.thread

.thread15:                                        ; preds = %15, %19
  %23 = getelementptr inbounds nuw i8, ptr %0, i64 28
  store i8 1, ptr %23, align 4
  br label %26

.thread:                                          ; preds = %10, %1, %19
  %.014 = phi ptr [ %22, %19 ], [ @.str.14, %10 ], [ @.str.17, %1 ]
  %24 = tail call ptr @cstring_to_text(ptr noundef nonnull %.014) #9
  %25 = ptrtoint ptr %24 to i64
  br label %26

26:                                               ; preds = %.thread, %.thread15
  %.08 = phi i64 [ %25, %.thread ], [ 0, %.thread15 ]
  ret i64 %.08
}